; Function Attrs: nounwind uwtable
define internal { i64, ptr } @f_ldexp(ptr readnone captures(none) %0, i64 %1, ptr %2, i64 %3, ptr %4, ptr noundef readonly byval(%struct.jv) align 8 captures(none) %5) #0 {
  %7 = alloca [15 x i8], align 1
  %8 = alloca [15 x i8], align 1
  tail call void @jv_free(i64 %1, ptr %2) #14
  %9 = tail call i32 @jv_get_kind(i64 %3, ptr %4) #14
  %.not = icmp eq i32 %9, 4
  %10 = load i64, ptr %5, align 8
  %11 = getelementptr inbounds nuw i8, ptr %5, i64 8
  %12 = load ptr, ptr %11, align 8
  br i1 %.not, label %21, label %13

13:                                               ; preds = %6
  tail call void @jv_free(i64 %10, ptr %12) #14
  call void @llvm.lifetime.start.p0(i64 15, ptr nonnull %8) #14
  %14 = tail call i32 @jv_get_kind(i64 %3, ptr %4) #14
  %15 = tail call ptr @jv_kind_name(i32 noundef %14) #14
  %16 = call ptr @jv_dump_string_trunc(i64 %3, ptr %4, ptr noundef nonnull %8, i64 noundef 15) #14
  %17 = call { i64, ptr } (ptr, ...) @jv_string_fmt(ptr noundef nonnull @.str.155, ptr noundef %15, ptr noundef %16, ptr noundef nonnull @.str.154) #14
  %18 = extractvalue { i64, ptr } %17, 0
  %19 = extractvalue { i64, ptr } %17, 1
  %20 = call { i64, ptr } @jv_invalid_with_msg(i64 %18, ptr %19) #14
  call void @llvm.lifetime.end.p0(i64 15, ptr nonnull %8) #14
  br label %37

21:                                               ; preds = %6
  %22 = tail call i32 @jv_get_kind(i64 %10, ptr %12) #14
  %.not11 = icmp eq i32 %22, 4
  br i1 %.not11, label %31, label %23

23:                                               ; preds = %21
  tail call void @jv_free(i64 %3, ptr %4) #14
  call void @llvm.lifetime.start.p0(i64 15, ptr nonnull %7) #14
  %24 = tail call i32 @jv_get_kind(i64 %10, ptr %12) #14
  %25 = tail call ptr @jv_kind_name(i32 noundef %24) #14
  %26 = call ptr @jv_dump_string_trunc(i64 %10, ptr %12, ptr noundef nonnull %7, i64 noundef 15) #14
  %27 = call { i64, ptr } (ptr, ...) @jv_string_fmt(ptr noundef nonnull @.str.155, ptr noundef %25, ptr noundef %26, ptr noundef nonnull @.str.154) #14
  %28 = extractvalue { i64, ptr } %27, 0
  %29 = extractvalue { i64, ptr } %27, 1
  %30 = call { i64, ptr } @jv_invalid_with_msg(i64 %28, ptr %29) #14
  call void @llvm.lifetime.end.p0(i64 15, ptr nonnull %7) #14
  br label %37

31:                                               ; preds = %21
  %32 = tail call double @jv_number_value(i64 %3, ptr %4) #14
  %33 = tail call double @jv_number_value(i64 %10, ptr %12) #14
  %34 = fptosi double %33 to i32
  %35 = tail call double @ldexp(double noundef %32, i32 noundef %34) #14, !tbaa !19
  %36 = tail call { i64, ptr } @jv_number(double noundef %35) #14
  tail call void @jv_free(i64 %3, ptr %4) #14
  tail call void @jv_free(i64 %10, ptr %12) #14
  br label %37

37:                                               ; preds = %31, %23, %13
  %.pn = phi { i64, ptr } [ %20, %13 ], [ %30, %23 ], [ %36, %31 ]
  ret { i64, ptr } %.pn
}